; Function Attrs: mustprogress nofree norecurse nosync nounwind willreturn memory(argmem: readwrite) uwtable
define void @_ZN5boost19execution_exceptionC2ENS0_10error_codeENS_9unit_test13basic_cstringIKcEERKNS0_8locationE(ptr nocapture noundef nonnull writeonly align 8 dereferenceable(64) %0, i32 noundef %1, ptr nocapture noundef readonly %2, ptr nocapture noundef nonnull readonly align 8 dereferenceable(40) %3) unnamed_addr #20 align 2 {
  store i32 %1, ptr %0, align 8, !tbaa !121
  %5 = getelementptr inbounds nuw i8, ptr %2, i64 8
  %6 = load ptr, ptr %5, align 8, !tbaa !17
  %7 = load ptr, ptr %2, align 8, !tbaa !13
  %8 = icmp eq ptr %6, %7
  %spec.select = select i1 %8, ptr @.str.48, ptr %7
  %spec.select3 = select i1 %8, ptr getelementptr inbounds nuw (i8, ptr @.str.48, i64 51), ptr %6
  %9 = getelementptr inbounds nuw i8, ptr %0, i64 8
  store ptr %spec.select, ptr %9, align 8
  %10 = getelementptr inbounds nuw i8, ptr %0, i64 16
  store ptr %spec.select3, ptr %10, align 8
  %11 = getelementptr inbounds nuw i8, ptr %0, i64 24
  %12 = load ptr, ptr %3, align 8, !tbaa !13
  store ptr %12, ptr %11, align 8, !tbaa !13
  %13 = getelementptr inbounds nuw i8, ptr %0, i64 32
  %14 = getelementptr inbounds nuw i8, ptr %3, i64 8
  %15 = load ptr, ptr %14, align 8, !tbaa !17
  store ptr %15, ptr %13, align 8, !tbaa !17
  %16 = getelementptr inbounds nuw i8, ptr %0, i64 40
  %17 = getelementptr inbounds nuw i8, ptr %3, i64 16
  %18 = load i64, ptr %17, align 8, !tbaa !125
  store i64 %18, ptr %16, align 8, !tbaa !125
  %19 = getelementptr inbounds nuw i8, ptr %0, i64 48
  %20 = getelementptr inbounds nuw i8, ptr %3, i64 24
  %21 = load ptr, ptr %20, align 8, !tbaa !13
  store ptr %21, ptr %19, align 8, !tbaa !13
  %22 = getelementptr inbounds nuw i8, ptr %0, i64 56
  %23 = getelementptr inbounds nuw i8, ptr %3, i64 32
  %24 = load ptr, ptr %23, align 8, !tbaa !17
  store ptr %24, ptr %22, align 8, !tbaa !17
  ret void
}